target datalayout = "e-m:e-p270:32:32-p271:32:32-p272:64:64-i64:64-i128:128-f80:128-n8:16:32:64-S128"
target triple = "x86_64-pc-linux-gnu"

%struct.CPpmd7 = type { ptr, ptr, ptr, i32, i32, i32, i32, i32, i32, i32, i32, i32, ptr, ptr, ptr, ptr, ptr, i32, [38 x i8], [128 x i8], [38 x i32], [256 x i8], [256 x i8], [256 x i8], %struct.CPpmd_See, [25 x [16 x %struct.CPpmd_See]], [128 x [64 x i16]] }
%struct.CPpmd_See = type { i16, i8, i8 }
%struct.ISzAlloc = type { ptr, ptr }

; Function Attrs: nounwind uwtable
define void @Ppmd7_Free(ptr noundef %0, ptr noundef %1) #0 {
  %3 = alloca ptr, align 8
  %4 = alloca ptr, align 8
  store ptr %0, ptr %3, align 8, !tbaa !3
  store ptr %1, ptr %4, align 8, !tbaa !3
  %5 = load ptr, ptr %4, align 8, !tbaa !3
  %6 = getelementptr inbounds nuw %struct.ISzAlloc, ptr %5, i32 0, i32 1
  %7 = load ptr, ptr %6, align 8, !tbaa !16
  %8 = load ptr, ptr %4, align 8, !tbaa !3
  %9 = load ptr, ptr %3, align 8, !tbaa !3
  %10 = getelementptr inbounds nuw %struct.CPpmd7, ptr %9, i32 0, i32 12
  %11 = load ptr, ptr %10, align 8, !tbaa !7
  call void %7(ptr noundef %8, ptr noundef %11)
  %12 = load ptr, ptr %3, align 8, !tbaa !3
  %13 = getelementptr inbounds nuw %struct.CPpmd7, ptr %12, i32 0, i32 10
  store i32 0, ptr %13, align 4, !tbaa !18
  %14 = load ptr, ptr %3, align 8, !tbaa !3
  %15 = getelementptr inbounds nuw %struct.CPpmd7, ptr %14, i32 0, i32 12
  store ptr null, ptr %15, align 8, !tbaa !7
  ret void
}