; Function Attrs: nounwind uwtable
define void @Ppmd7_Free(ptr noundef captures(none) initializes((52, 56)) %0, ptr noundef %1) local_unnamed_addr #3 {
  %3 = getelementptr inbounds nuw i8, ptr %1, i64 8
  %4 = load ptr, ptr %3, align 8, !tbaa !14
  %5 = getelementptr inbounds nuw i8, ptr %0, i64 64
  %6 = load ptr, ptr %5, align 8, !tbaa !3
  tail call void %4(ptr noundef %1, ptr noundef %6) #9
  %7 = getelementptr inbounds nuw i8, ptr %0, i64 52
  store i32 0, ptr %7, align 4, !tbaa !16
  store ptr null, ptr %5, align 8, !tbaa !3
  ret void
}